; ModuleID = '58/1185.c'
source_filename = "58/1185.c"
target datalayout = "e-m:e-p270:32:32-p271:32:32-p272:64:64-i64:64-f80:128-n8:16:32:64-S128"
target triple = "x86_64-pc-linux-gnu"

@.str = private unnamed_addr constant [4 x i8] c"%d \00", align 1
@.str.1 = private unnamed_addr constant [3 x i8] c"0\0A\00", align 1
@.str.2 = private unnamed_addr constant [3 x i8] c"1\0A\00", align 1

; Function Attrs: noinline nounwind uwtable
define dso_local void @main() #0 {
  %1 = alloca i32, align 4
  %2 = alloca i32, align 4
  %3 = alloca i32, align 4
  %4 = alloca [82 x i8], align 16
  %5 = alloca i8*, align 8
  store i32 0, i32* %3, align 4
  %6 = call i32 (i8*, ...) @__isoc99_scanf(i8* getelementptr inbounds ([4 x i8], [4 x i8]* @.str, i64 0, i64 0), i32* %1)
  store i32 0, i32* %2, align 4
  br label %7

7:                                                ; preds = %104, %0
  %8 = load i32, i32* %2, align 4
  %9 = load i32, i32* %1, align 4
  %10 = icmp slt i32 %8, %9
  br i1 %10, label %11, label %107

11:                                               ; preds = %7
  %12 = getelementptr inbounds [82 x i8], [82 x i8]* %4, i64 0, i64 0
  %13 = call i32 (i8*, ...) bitcast (i32 (...)* @gets to i32 (i8*, ...)*)(i8* %12)
  %14 = getelementptr inbounds [82 x i8], [82 x i8]* %4, i64 0, i64 0
  store i8* %14, i8** %5, align 8
  %15 = load i8*, i8** %5, align 8
  %16 = load i8, i8* %15, align 1
  %17 = sext i8 %16 to i32
  %18 = icmp sge i32 %17, 97
  br i1 %18, label %19, label %24

19:                                               ; preds = %11
  %20 = load i8*, i8** %5, align 8
  %21 = load i8, i8* %20, align 1
  %22 = sext i8 %21 to i32
  %23 = icmp sle i32 %22, 122
  br i1 %23, label %39, label %24

24:                                               ; preds = %19, %11
  %25 = load i8*, i8** %5, align 8
  %26 = load i8, i8* %25, align 1
  %27 = sext i8 %26 to i32
  %28 = icmp sge i32 %27, 65
  br i1 %28, label %29, label %34

29:                                               ; preds = %24
  %30 = load i8*, i8** %5, align 8
  %31 = load i8, i8* %30, align 1
  %32 = sext i8 %31 to i32
  %33 = icmp sle i32 %32, 90
  br i1 %33, label %39, label %34

34:                                               ; preds = %29, %24
  %35 = load i8*, i8** %5, align 8
  %36 = load i8, i8* %35, align 1
  %37 = sext i8 %36 to i32
  %38 = icmp eq i32 %37, 95
  br i1 %38, label %39, label %41

39:                                               ; preds = %34, %29, %19
  %40 = load i32, i32* %3, align 4
  store i32 %40, i32* %3, align 4
  br label %44

41:                                               ; preds = %34
  %42 = load i32, i32* %3, align 4
  %43 = add nsw i32 %42, 1
  store i32 %43, i32* %3, align 4
  br label %44

44:                                               ; preds = %41, %39
  %45 = load i8*, i8** %5, align 8
  %46 = getelementptr inbounds i8, i8* %45, i32 1
  store i8* %46, i8** %5, align 8
  br label %47

47:                                               ; preds = %93, %44
  %48 = load i8*, i8** %5, align 8
  %49 = load i8, i8* %48, align 1
  %50 = sext i8 %49 to i32
  %51 = icmp ne i32 %50, 0
  br i1 %51, label %52, label %96

52:                                               ; preds = %47
  %53 = load i8*, i8** %5, align 8
  %54 = load i8, i8* %53, align 1
  %55 = sext i8 %54 to i32
  %56 = icmp sge i32 %55, 97
  br i1 %56, label %57, label %62

57:                                               ; preds = %52
  %58 = load i8*, i8** %5, align 8
  %59 = load i8, i8* %58, align 1
  %60 = sext i8 %59 to i32
  %61 = icmp sle i32 %60, 122
  br i1 %61, label %87, label %62

62:                                               ; preds = %57, %52
  %63 = load i8*, i8** %5, align 8
  %64 = load i8, i8* %63, align 1
  %65 = sext i8 %64 to i32
  %66 = icmp sge i32 %65, 65
  br i1 %66, label %67, label %72

67:                                               ; preds = %62
  %68 = load i8*, i8** %5, align 8
  %69 = load i8, i8* %68, align 1
  %70 = sext i8 %69 to i32
  %71 = icmp sle i32 %70, 90
  br i1 %71, label %87, label %72

72:                                               ; preds = %67, %62
  %73 = load i8*, i8** %5, align 8
  %74 = load i8, i8* %73, align 1
  %75 = sext i8 %74 to i32
  %76 = icmp eq i32 %75, 95
  br i1 %76, label %87, label %77

77:                                               ; preds = %72
  %78 = load i8*, i8** %5, align 8
  %79 = load i8, i8* %78, align 1
  %80 = sext i8 %79 to i32
  %81 = icmp sge i32 %80, 48
  br i1 %81, label %82, label %89

82:                                               ; preds = %77
  %83 = load i8*, i8** %5, align 8
  %84 = load i8, i8* %83, align 1
  %85 = sext i8 %84 to i32
  %86 = icmp sle i32 %85, 57
  br i1 %86, label %87, label %89

87:                                               ; preds = %82, %72, %67, %57
  %88 = load i32, i32* %3, align 4
  store i32 %88, i32* %3, align 4
  br label %92

89:                                               ; preds = %82, %77
  %90 = load i32, i32* %3, align 4
  %91 = add nsw i32 %90, 1
  store i32 %91, i32* %3, align 4
  br label %92

92:                                               ; preds = %89, %87
  br label %93

93:                                               ; preds = %92
  %94 = load i8*, i8** %5, align 8
  %95 = getelementptr inbounds i8, i8* %94, i32 1
  store i8* %95, i8** %5, align 8
  br label %47

96:                                               ; preds = %47
  %97 = load i32, i32* %3, align 4
  %98 = icmp ne i32 %97, 0
  br i1 %98, label %99, label %101

99:                                               ; preds = %96
  %100 = call i32 (i8*, ...) @printf(i8* getelementptr inbounds ([3 x i8], [3 x i8]* @.str.1, i64 0, i64 0))
  br label %103

101:                                              ; preds = %96
  %102 = call i32 (i8*, ...) @printf(i8* getelementptr inbounds ([3 x i8], [3 x i8]* @.str.2, i64 0, i64 0))
  br label %103

103:                                              ; preds = %101, %99
  store i32 0, i32* %3, align 4
  br label %104

104:                                              ; preds = %103
  %105 = load i32, i32* %2, align 4
  %106 = add nsw i32 %105, 1
  store i32 %106, i32* %2, align 4
  br label %7

107:                                              ; preds = %7
  ret void
}

declare dso_local i32 @__isoc99_scanf(i8*, ...) #1

declare dso_local i32 @gets(...) #1

declare dso_local i32 @printf(i8*, ...) #1


!llvm.module.flags = !{!0}
!llvm.ident = !{!1}

!0 = !{i32 1, !"wchar_size", i32 4}
!1 = !{!"clang version 10.0.0-4ubuntu1 "}
